; Function Attrs: mustprogress uwtable
define ptr @llama_token_get_text(ptr noundef readonly captures(none) %0, i32 noundef %1) local_unnamed_addr #0 {
  %3 = load ptr, ptr %0, align 8, !tbaa !174
  %4 = getelementptr inbounds nuw i8, ptr %3, i64 4
  %5 = load i32, ptr %4, align 4, !tbaa !15
  %.not.i.i = icmp eq i32 %5, 0
  br i1 %.not.i.i, label %6, label %7

6:                                                ; preds = %2
  tail call void (ptr, i32, ptr, ...) @ggml_abort(ptr noundef nonnull @.str.62, i32 noundef 2822, ptr noundef nonnull @.str.63, ptr noundef nonnull @.str.152) #31
  unreachable

7:                                                ; preds = %2
  %8 = getelementptr inbounds nuw i8, ptr %3, i64 144
  %9 = sext i32 %1 to i64
  %10 = getelementptr inbounds nuw i8, ptr %3, i64 152
  %11 = load ptr, ptr %10, align 8, !tbaa !70
  %12 = load ptr, ptr %8, align 8, !tbaa !71
  %13 = ptrtoint ptr %11 to i64
  %14 = ptrtoint ptr %12 to i64
  %15 = sub i64 %13, %14
  %16 = sdiv exact i64 %15, 40
  %.not.i.i.i.i = icmp ugt i64 %16, %9
  br i1 %.not.i.i.i.i, label %llama_vocab_get_text.exit, label %17

17:                                               ; preds = %7
  tail call void (ptr, ...) @_ZSt24__throw_out_of_range_fmtPKcz(ptr noundef nonnull @.str.179, i64 noundef %9, i64 noundef %16) #31
  unreachable

llama_vocab_get_text.exit:                        ; preds = %7
  %18 = getelementptr inbounds nuw %"struct.llama_vocab::token_data", ptr %12, i64 %9
  %19 = load ptr, ptr %18, align 8, !tbaa !72
  ret ptr %19
}